Certificate:
    Data:
        Version: 3 (0x2)
        Serial Number: 286 (0x11e)
    Signature Algorithm: sha256WithRSAEncryption
        Issuer: C=TR, ST=test, L=test, O=test, OU=test, CN=test/emailAddress=ucribrahim@gmail.com
        Validity
            Not Before: Jan  4 07:12:25 2018 GMT
            Not After : Feb 23 07:12:25 2100 GMT
        Subject: C=TR, ST=test, O=test, OU=test, CN=test/emailAddress=ucribrahim@gmail.com
        Subject Public Key Info:
            Public Key Algorithm: rsaEncryption
                Public-Key: (2048 bit)
                Modulus:
                    00:d8:20:56:81:e5:11:38:57:cc:63:16:0a:dd:bc:
                    05:6d:d1:3d:45:50:52:bc:f1:fc:35:7d:93:f2:b0:
                    16:ab:2e:62:b4:c0:c0:b2:c5:4b:ec:85:58:22:a3:
                    a6:5a:11:73:43:af:f7:1c:c2:4b:fa:ec:78:58:65:
                    e6:55:4c:78:7c:4b:86:96:b7:6c:5f:25:13:63:97:
                    b7:58:92:06:e3:a8:c4:00:0f:e4:b5:c5:fa:c6:0f:
                    1f:73:8c:ff:ac:c6:cf:9f:b5:a7:33:ce:7a:7b:ac:
                    e1:85:a0:5b:e0:47:8a:ee:c3:71:47:46:92:de:8a:
                    e2:d3:5e:97:c6:87:0c:69:a5:92:41:1b:b0:8a:4a:
                    3e:7b:c5:d9:55:c5:02:37:cd:c6:6c:4d:08:86:20:
                    e6:18:e3:e0:cc:c4:f2:38:19:9c:0f:92:a0:6c:05:
                    fe:db:0e:e6:0d:6f:50:26:e1:32:bb:0d:3e:a2:c1:
                    a4:76:6a:5c:4a:ee:e4:af:af:c1:e9:fd:50:09:4b:
                    03:94:0c:83:b6:2f:4e:49:6a:9d:d9:ef:0f:52:1d:
                    f2:e1:58:0a:af:ec:49:15:5f:da:44:a4:f3:36:6f:
                    60:dd:46:bd:a2:83:7d:aa:da:51:27:e1:4e:97:e2:
                    5d:d0:b8:ed:eb:e3:10:c1:70:b3:c0:1c:d4:16:0c:
                    f4:5b
                Exponent: 65537 (0x10001)
        X509v3 extensions:
            X509v3 Basic Constraints: 
                CA:FALSE
            Netscape Comment: 
                OpenSSL Generated Certificate
            X509v3 Subject Key Identifier: 
                22:96:08:9B:E7:C0:7B:39:DB:6A:D9:DC:27:4F:8B:05:B3:A5:68:0B
            X509v3 Authority Key Identifier: 
                keyid:AF:76:66:FF:72:12:92:C8:F4:32:1F:05:C8:21:22:2A:78:1E:37:E4

            X509v3 Extended Key Usage: critical
                Time Stamping
    Signature Algorithm: sha256WithRSAEncryption
         80:2a:c3:6a:63:51:0f:fd:92:0b:32:c3:68:47:71:35:d3:86:
         8c:d9:28:2c:43:ad:ac:71:1a:63:64:f2:54:0b:ed:69:8c:73:
         9a:4b:6b:49:f2:00:71:e9:e0:78:97:0c:f6:5a:1e:ec:c5:2a:
         0e:a5:f0:43:8c:b6:db:2f:c5:91:f5:d0:94:7a:2b:13:c8:83:
         bb:b7:ab:d8:a2:3f:13:ec:17:d2:01:49:21:25:66:c2:19:bd:
         4f:5e:b4:66:51:3e:0b:55:80:c3:1e:af:63:95:89:29:62:5d:
         d2:73:7c:a9:07:0a:da:c7:54:bd:ce:d9:ab:3f:ac:cb:9b:ab:
         f0:4a:69:51:6c:1d:76:12:de:77:84:08:1e:6c:f8:da:8d:a4:
         a6:f4:6f:3b:bd:a9:e2:29:a3:d0:32:00:6d:a4:fd:ab:af:15:
         2b:b9:e0:45:70:c9:99:74:77:f8:44:27:2b:84:af:cf:8e:b3:
         52:24:51:d8:c4:a9:c9:1e:82:5e:77:75:16:9b:68:6b:d5:a7:
         69:bb:76:6b:50:96:59:11:1e:cd:76:31:50:1b:ca:d3:fe:83:
         43:00:36:dd:6e:63:25:8a:c5:14:93:47:ca:18:da:41:8d:6e:
         ec:de:fb:7e:6f:06:a3:2f:07:b6:7c:a3:e8:73:90:ab:82:66:
         0f:ce:1d:07
-----BEGIN CERTIFICATE-----
MIID/jCCAuagAwIBAgICAR4wDQYJKoZIhvcNAQELBQAwfTELMAkGA1UEBhMCVFIx
DTALBgNVBAgMBHRlc3QxDTALBgNVBAcMBHRlc3QxDTALBgNVBAoMBHRlc3QxDTAL
BgNVBAsMBHRlc3QxDTALBgNVBAMMBHRlc3QxIzAhBgkqhkiG9w0BCQEWFHVjcmli
cmFoaW1AZ21haWwuY29tMCAXDTE4MDEwNDA3MTIyNVoYDzIxMDAwMjIzMDcxMjI1
WjBuMQswCQYDVQQGEwJUUjENMAsGA1UECAwEdGVzdDENMAsGA1UECgwEdGVzdDEN
MAsGA1UECwwEdGVzdDENMAsGA1UEAwwEdGVzdDEjMCEGCSqGSIb3DQEJARYUdWNy
aWJyYWhpbUBnbWFpbC5jb20wggEiMA0GCSqGSIb3DQEBAQUAA4IBDwAwggEKAoIB
AQDYIFaB5RE4V8xjFgrdvAVt0T1FUFK88fw1fZPysBarLmK0wMCyxUvshVgio6Za
EXNDr/ccwkv67HhYZeZVTHh8S4aWt2xfJRNjl7dYkgbjqMQAD+S1xfrGDx9zjP+s
xs+ftaczznp7rOGFoFvgR4ruw3FHRpLeiuLTXpfGhwxppZJBG7CKSj57xdlVxQI3
zcZsTQiGIOYY4+DMxPI4GZwPkqBsBf7bDuYNb1Am4TK7DT6iwaR2alxK7uSvr8Hp
/VAJSwOUDIO2L05Jap3Z7w9SHfLhWAqv7EkVX9pEpPM2b2DdRr2ig32q2lEn4U6X
4l3QuO3r4xDBcLPAHNQWDPRbAgMBAAGjgZQwgZEwCQYDVR0TBAIwADAsBglghkgB
hvhCAQ0EHxYdT3BlblNTTCBHZW5lcmF0ZWQgQ2VydGlmaWNhdGUwHQYDVR0OBBYE
FCKWCJvnwHs522rZ3CdPiwWzpWgLMB8GA1UdIwQYMBaAFK92Zv9yEpLI9DIfBcgh
Iip4HjfkMBYGA1UdJQEB/wQMMAoGCCsGAQUFBwMIMA0GCSqGSIb3DQEBCwUAA4IB
AQCAKsNqY1EP/ZILMsNoR3E104aM2SgsQ62scRpjZPJUC+1pjHOaS2tJ8gBx6eB4
lwz2Wh7sxSoOpfBDjLbbL8WR9dCUeisTyIO7t6vYoj8T7BfSAUkhJWbCGb1PXrRm
UT4LVYDDHq9jlYkpYl3Sc3ypBwrax1S9ztmrP6zLm6vwSmlRbB12Et53hAgebPja
jaSm9G87vaniKaPQMgBtpP2rrxUrueBFcMmZdHf4RCcrhK/PjrNSJFHYxKnJHoJe
d3UWm2hr1adpu3ZrUJZZER7NdjFQG8rT/oNDADbdbmMlisUUk0fKGNpBjW7s3vt+
bwajLwe2fKPoc5CrgmYPzh0H
-----END CERTIFICATE-----
